(ikeras_frcnn.config
Config
p0
(dp1
S'use_vertical_flips'
p2
I00
sS'verbose'
p3
I01
sS'classifier_regr_std'
p4
(lp5
F8.0
aF8.0
aF4.0
aF4.0
asS'classifier_min_overlap'
p6
F0.1
sS'rot_90'
p7
I00
sS'num_epochs'
p8
I5
sS'ori_res50_withtop'
p9
S'/media/e813/D/weights/kerash5/resnet50/resnet50_weights_tf_dim_ordering_tf_kernels.h5'
p10
sS'class_mapping'
p11
(dp12
S'head'
p13
I0
sS'bg'
p14
I7
sS'back'
p15
I3
sS'tail'
p16
I6
sS'belly'
p17
I4
sS'legs'
p18
I2
sS'wings'
p19
I1
sS'breast'
p20
I5
ssS'pascal_voc_year'
p21
(lp22
S'VOC2007'
p23
asS'use_horizontal_flips'
p24
I00
sS'input_weight_path'
p25
S'/media/e813/D/weights/kerash5/frcnn/TST2/model_holyclassifier.hdf5'
p26
sS'rpn_max_overlap'
p27
F0.7
sS'network'
p28
S'resnet50'
p29
sS'img_channel_mean'
p30
(lp31
F103.939
aF116.779
aF123.68
asS'parser'
p32
S'pascal_voc'
p33
sS'balanced_classes'
p34
I00
sS'anchor_box_ratios'
p35
(lp36
(lp37
I1
aI1
aa(lp38
F0.7071067811865475
aF1.414213562373095
aa(lp39
F1.414213562373095
aF0.7071067811865475
aasS'img_scaling_factor'
p40
F1.0
sS'train_path'
p41
S'/home/e813/dataset/VOCdevkit_2007_trainval'
p42
sS'rpn_stride'
p43
I16
sS'config_filepath'
p44
S'config.pickle'
p45
sS'holy_img_weight_path'
p46
S'/media/e813/D/weights/kerash5/frcnn/TST_holy_img/'
p47
sS'num_rois'
p48
I32
sS'base_net_weights'
p49
g10
sS'anchor_box_scales'
p50
(lp51
I128
aI256
aI512
asS'rpn_min_overlap'
p52
F0.3
sS'model_path'
p53
S'/media/e813/D/weights/kerash5/frcnn/TST2/model_frcnn.vgg.hdf5'
p54
sS'classifier_max_overlap'
p55
F0.5
sS'std_scaling'
p56
F4.0
sS'im_size'
p57
I600
sS'output_weight_path'
p58
S'/media/e813/D/weights/kerash5/frcnn/tstVOC/model_frcnn.hdf5'
p59
sb.